target datalayout = "e-m:e-p270:32:32-p271:32:32-p272:64:64-i64:64-i128:128-f80:128-n8:16:32:64-S128"
target triple = "x86_64-pc-linux-gnu"

%"class.icu_77::LocalPointer" = type { %"class.icu_77::LocalPointerBase" }
%"class.icu_77::LocalPointerBase" = type { ptr }

@stderr = external global ptr, align 8
@.str.1 = private unnamed_addr constant [27 x i8] c"icupkg: not enough memory\0A\00", align 1

; Function Attrs: mustprogress nounwind uwtable
define linkonce_odr void @_ZN6icu_7716LocalPointerBaseINS_7PackageEEC2EPS1_(ptr noundef nonnull align 8 dereferenceable(8) %0, ptr noundef %1) unnamed_addr #8 comdat align 2 {
  %3 = alloca ptr, align 8
  %4 = alloca ptr, align 8
  store ptr %0, ptr %3, align 8, !tbaa !31
  store ptr %1, ptr %4, align 8, !tbaa !9
  %5 = load ptr, ptr %3, align 8
  %6 = getelementptr inbounds nuw %"class.icu_77::LocalPointerBase", ptr %5, i32 0, i32 0
  %7 = load ptr, ptr %4, align 8, !tbaa !9
  store ptr %7, ptr %6, align 8, !tbaa !29
  ret void
}

; Function Attrs: mustprogress nounwind uwtable
define linkonce_odr noundef nonnull align 8 dereferenceable(201237) ptr @_ZNK6icu_7716LocalPointerBaseINS_7PackageEEdeEv(ptr noundef nonnull align 8 dereferenceable(8) %0) #8 comdat align 2 {
  %2 = alloca ptr, align 8
  store ptr %0, ptr %2, align 8, !tbaa !31
  %3 = load ptr, ptr %2, align 8
  %4 = getelementptr inbounds nuw %"class.icu_77::LocalPointerBase", ptr %3, i32 0, i32 0
  %5 = load ptr, ptr %4, align 8, !tbaa !29
  ret ptr %5
}

; Function Attrs: mustprogress nounwind uwtable
define linkonce_odr noundef signext i8 @_ZNK6icu_7716LocalPointerBaseINS_7PackageEE7isValidEv(ptr noundef nonnull align 8 dereferenceable(8) %0) #8 comdat align 2 {
  %2 = alloca ptr, align 8
  store ptr %0, ptr %2, align 8, !tbaa !31
  %3 = load ptr, ptr %2, align 8
  %4 = getelementptr inbounds nuw %"class.icu_77::LocalPointerBase", ptr %3, i32 0, i32 0
  %5 = load ptr, ptr %4, align 8, !tbaa !29
  %6 = icmp ne ptr %5, null
  %7 = zext i1 %6 to i8
  ret i8 %7
}

; Function Attrs: mustprogress nounwind uwtable
define linkonce_odr noundef ptr @_ZNK6icu_7716LocalPointerBaseINS_7PackageEE8getAliasEv(ptr noundef nonnull align 8 dereferenceable(8) %0) #8 comdat align 2 {
  %2 = alloca ptr, align 8
  store ptr %0, ptr %2, align 8, !tbaa !31
  %3 = load ptr, ptr %2, align 8
  %4 = getelementptr inbounds nuw %"class.icu_77::LocalPointerBase", ptr %3, i32 0, i32 0
  %5 = load ptr, ptr %4, align 8, !tbaa !29
  ret ptr %5
}

; Function Attrs: mustprogress nounwind uwtable
define linkonce_odr noundef signext i8 @_ZNK6icu_7716LocalPointerBaseINS_7PackageEE6isNullEv(ptr noundef nonnull align 8 dereferenceable(8) %0) #8 comdat align 2 {
  %2 = alloca ptr, align 8
  store ptr %0, ptr %2, align 8, !tbaa !31
  %3 = load ptr, ptr %2, align 8
  %4 = getelementptr inbounds nuw %"class.icu_77::LocalPointerBase", ptr %3, i32 0, i32 0
  %5 = load ptr, ptr %4, align 8, !tbaa !29
  %6 = icmp eq ptr %5, null
  %7 = zext i1 %6 to i8
  ret i8 %7
}

; Function Attrs: mustprogress nounwind uwtable
define linkonce_odr void @_ZN6icu_7712LocalPointerINS_7PackageEE12adoptInsteadEPS1_(ptr noundef nonnull align 8 dereferenceable(8) %0, ptr noundef %1) #8 comdat align 2 {
  %3 = alloca ptr, align 8
  %4 = alloca ptr, align 8
  store ptr %0, ptr %3, align 8, !tbaa !27
  store ptr %1, ptr %4, align 8, !tbaa !9
  %5 = load ptr, ptr %3, align 8
  %6 = getelementptr inbounds nuw %"class.icu_77::LocalPointerBase", ptr %5, i32 0, i32 0
  %7 = load ptr, ptr %6, align 8, !tbaa !29
  %8 = icmp eq ptr %7, null
  br i1 %8, label %10, label %9

9:                                                ; preds = %2
  call void @_ZN6icu_777PackageD1Ev(ptr noundef nonnull align 8 dereferenceable(201237) %7) #9
  call void @_ZdlPvm(ptr noundef %7, i64 noundef 201240) #12
  br label %10

10:                                               ; preds = %9, %2
  %11 = load ptr, ptr %4, align 8, !tbaa !9
  %12 = getelementptr inbounds nuw %"class.icu_77::LocalPointerBase", ptr %5, i32 0, i32 0
  store ptr %11, ptr %12, align 8, !tbaa !29
  ret void
}

; Function Attrs: mustprogress uwtable
define linkonce_odr void @_ZN6icu_7712LocalPointerINS_7PackageEEC2EPS1_(ptr noundef nonnull align 8 dereferenceable(8) %0, ptr noundef %1) unnamed_addr #0 comdat align 2 {
  %3 = alloca ptr, align 8
  %4 = alloca ptr, align 8
  store ptr %0, ptr %3, align 8, !tbaa !27
  store ptr %1, ptr %4, align 8, !tbaa !9
  %5 = load ptr, ptr %3, align 8
  %6 = load ptr, ptr %4, align 8, !tbaa !9
  call void @_ZN6icu_7716LocalPointerBaseINS_7PackageEEC2EPS1_(ptr noundef nonnull align 8 dereferenceable(8) %5, ptr noundef %6)
  ret void
}

; Function Attrs: mustprogress uwtable
define i32 @writePackageDatFile(ptr noundef %0, ptr noundef %1, ptr noundef %2, ptr noundef %3, ptr noundef %4, i8 noundef signext %5) #0 personality ptr @__gxx_personality_v0 {
  %7 = alloca i32, align 4
  %8 = alloca ptr, align 8
  %9 = alloca ptr, align 8
  %10 = alloca ptr, align 8
  %11 = alloca ptr, align 8
  %12 = alloca ptr, align 8
  %13 = alloca i8, align 1
  %14 = alloca %"class.icu_77::LocalPointer", align 8
  %15 = alloca %"class.icu_77::LocalPointer", align 8
  %16 = alloca ptr, align 8
  %17 = alloca i32, align 4
  %18 = alloca i32, align 4
  store ptr %0, ptr %8, align 8, !tbaa !3
  store ptr %1, ptr %9, align 8, !tbaa !3
  store ptr %2, ptr %10, align 8, !tbaa !3
  store ptr %3, ptr %11, align 8, !tbaa !3
  store ptr %4, ptr %12, align 8, !tbaa !9
  store i8 %5, ptr %13, align 1, !tbaa !8
  call void @llvm.lifetime.start.p0(i64 8, ptr %14) #9
  call void @_ZN6icu_7712LocalPointerINS_7PackageEEC2EPS1_(ptr noundef nonnull align 8 dereferenceable(8) %14, ptr noundef null)
  call void @llvm.lifetime.start.p0(i64 8, ptr %15) #9
  invoke void @_ZN6icu_7712LocalPointerINS_7PackageEEC2EPS1_(ptr noundef nonnull align 8 dereferenceable(8) %15, ptr noundef null)
          to label %19 unwind label %33

19:                                               ; preds = %6
  %20 = load ptr, ptr %12, align 8, !tbaa !9
  %21 = icmp eq ptr %20, null
  br i1 %21, label %22, label %63

22:                                               ; preds = %19
  %23 = invoke noalias noundef nonnull ptr @_Znwm(i64 noundef 201240) #10
          to label %24 unwind label %37

24:                                               ; preds = %22
  invoke void @_ZN6icu_777PackageC1Ev(ptr noundef nonnull align 8 dereferenceable(201237) %23)
          to label %25 unwind label %41

25:                                               ; preds = %24
  invoke void @_ZN6icu_7712LocalPointerINS_7PackageEE12adoptInsteadEPS1_(ptr noundef nonnull align 8 dereferenceable(8) %14, ptr noundef %23)
          to label %26 unwind label %37

26:                                               ; preds = %25
  %27 = invoke noundef signext i8 @_ZNK6icu_7716LocalPointerBaseINS_7PackageEE6isNullEv(ptr noundef nonnull align 8 dereferenceable(8) %14)
          to label %28 unwind label %37

28:                                               ; preds = %26
  %29 = icmp ne i8 %27, 0
  br i1 %29, label %30, label %45

30:                                               ; preds = %28
  %31 = load ptr, ptr @stderr, align 8, !tbaa !11
  %32 = call i32 (ptr, ptr, ...) @fprintf(ptr noundef %31, ptr noundef @.str.1) #9
  store i32 7, ptr %7, align 4
  store i32 1, ptr %18, align 4
  br label %69

33:                                               ; preds = %6
  %34 = landingpad { ptr, i32 }
          cleanup
  %35 = extractvalue { ptr, i32 } %34, 0
  store ptr %35, ptr %16, align 8
  %36 = extractvalue { ptr, i32 } %34, 1
  store i32 %36, ptr %17, align 4
  br label %72

37:                                               ; preds = %63, %59, %56, %52, %51, %47, %45, %26, %25, %22
  %38 = landingpad { ptr, i32 }
          cleanup
  %39 = extractvalue { ptr, i32 } %38, 0
  store ptr %39, ptr %16, align 8
  %40 = extractvalue { ptr, i32 } %38, 1
  store i32 %40, ptr %17, align 4
  br label %71

41:                                               ; preds = %24
  %42 = landingpad { ptr, i32 }
          cleanup
  %43 = extractvalue { ptr, i32 } %42, 0
  store ptr %43, ptr %16, align 8
  %44 = extractvalue { ptr, i32 } %42, 1
  store i32 %44, ptr %17, align 4
  call void @_ZdlPvm(ptr noundef %23, i64 noundef 201240) #12
  br label %71

45:                                               ; preds = %28
  %46 = invoke noundef ptr @_ZNK6icu_7716LocalPointerBaseINS_7PackageEE8getAliasEv(ptr noundef nonnull align 8 dereferenceable(8) %14)
          to label %47 unwind label %37

47:                                               ; preds = %45
  store ptr %46, ptr %12, align 8, !tbaa !9
  %48 = load ptr, ptr %10, align 8, !tbaa !3
  %49 = load ptr, ptr %11, align 8, !tbaa !3
  %50 = invoke ptr @readList(ptr noundef %48, ptr noundef %49, i8 noundef signext 1, ptr noundef null)
          to label %51 unwind label %37

51:                                               ; preds = %47
  invoke void @_ZN6icu_7712LocalPointerINS_7PackageEE12adoptInsteadEPS1_(ptr noundef nonnull align 8 dereferenceable(8) %15, ptr noundef %50)
          to label %52 unwind label %37

52:                                               ; preds = %51
  %53 = invoke noundef signext i8 @_ZNK6icu_7716LocalPointerBaseINS_7PackageEE7isValidEv(ptr noundef nonnull align 8 dereferenceable(8) %15)
          to label %54 unwind label %37

54:                                               ; preds = %52
  %55 = icmp ne i8 %53, 0
  br i1 %55, label %56, label %61

56:                                               ; preds = %54
  %57 = load ptr, ptr %12, align 8, !tbaa !9
  %58 = invoke noundef nonnull align 8 dereferenceable(201237) ptr @_ZNK6icu_7716LocalPointerBaseINS_7PackageEEdeEv(ptr noundef nonnull align 8 dereferenceable(8) %15)
          to label %59 unwind label %37

59:                                               ; preds = %56
  invoke void @_ZN6icu_777Package8addItemsERKS0_(ptr noundef nonnull align 8 dereferenceable(201237) %57, ptr noundef nonnull align 8 dereferenceable(201237) %58)
          to label %60 unwind label %37

60:                                               ; preds = %59
  br label %62

61:                                               ; preds = %54
  store i32 1, ptr %7, align 4
  store i32 1, ptr %18, align 4
  br label %69

62:                                               ; preds = %60
  br label %63

63:                                               ; preds = %62, %19
  %64 = load ptr, ptr %12, align 8, !tbaa !9
  %65 = load ptr, ptr %8, align 8, !tbaa !3
  %66 = load i8, ptr %13, align 1, !tbaa !8
  %67 = load ptr, ptr %9, align 8, !tbaa !3
  invoke void @_ZN6icu_777Package12writePackageEPKccS2_(ptr noundef nonnull align 8 dereferenceable(201237) %64, ptr noundef %65, i8 noundef signext %66, ptr noundef %67)
          to label %68 unwind label %37

68:                                               ; preds = %63
  store i32 0, ptr %7, align 4
  store i32 1, ptr %18, align 4
  br label %69

69:                                               ; preds = %68, %61, %30
  call void @_ZN6icu_7712LocalPointerINS_7PackageEED2Ev(ptr noundef nonnull align 8 dereferenceable(8) %15) #9
  call void @llvm.lifetime.end.p0(i64 8, ptr %15) #9
  call void @_ZN6icu_7712LocalPointerINS_7PackageEED2Ev(ptr noundef nonnull align 8 dereferenceable(8) %14) #9
  call void @llvm.lifetime.end.p0(i64 8, ptr %14) #9
  %70 = load i32, ptr %7, align 4
  ret i32 %70

71:                                               ; preds = %41, %37
  call void @_ZN6icu_7712LocalPointerINS_7PackageEED2Ev(ptr noundef nonnull align 8 dereferenceable(8) %15) #9
  br label %72

72:                                               ; preds = %71, %33
  call void @llvm.lifetime.end.p0(i64 8, ptr %15) #9
  call void @_ZN6icu_7712LocalPointerINS_7PackageEED2Ev(ptr noundef nonnull align 8 dereferenceable(8) %14) #9
  call void @llvm.lifetime.end.p0(i64 8, ptr %14) #9
  br label %73

73:                                               ; preds = %72
  %74 = load ptr, ptr %16, align 8
  %75 = load i32, ptr %17, align 4
  %76 = insertvalue { ptr, i32 } poison, ptr %74, 0
  %77 = insertvalue { ptr, i32 } %76, i32 %75, 1
  resume { ptr, i32 } %77
}