; Function Attrs: mustprogress uwtable
define range(i32 0, 2) i32 @writePackageDatFile(ptr noundef %0, ptr noundef %1, ptr noundef %2, ptr noundef %3, ptr noundef %4, i8 noundef signext %5) local_unnamed_addr #0 personality ptr @__gxx_personality_v0 {
  %7 = alloca %"class.icu_77::LocalPointer", align 8
  %8 = alloca %"class.icu_77::LocalPointer", align 8
  call void @llvm.lifetime.start.p0(i64 8, ptr nonnull %7) #15
  store ptr null, ptr %7, align 8, !tbaa !22
  call void @llvm.lifetime.start.p0(i64 8, ptr nonnull %8) #15
  store ptr null, ptr %8, align 8, !tbaa !22
  %9 = icmp eq ptr %4, null
  br i1 %9, label %10, label %20

10:                                               ; preds = %6
  %11 = invoke noalias noundef nonnull dereferenceable(201240) ptr @_Znwm(i64 noundef 201240) #13
          to label %12 unwind label %13

12:                                               ; preds = %10
  invoke void @_ZN6icu_777PackageC1Ev(ptr noundef nonnull align 8 dereferenceable(201237) %11)
          to label %17 unwind label %15

13:                                               ; preds = %20, %19, %17, %10
  %14 = landingpad { ptr, i32 }
          cleanup
  br label %27

15:                                               ; preds = %12
  %16 = landingpad { ptr, i32 }
          cleanup
  tail call void @_ZdlPvm(ptr noundef nonnull %11, i64 noundef 201240) #14
  br label %27

17:                                               ; preds = %12
  store ptr %11, ptr %7, align 8, !tbaa !22
  %18 = invoke ptr @readList(ptr noundef %2, ptr noundef %3, i8 noundef signext 1, ptr noundef null)
          to label %_ZN6icu_7712LocalPointerINS_7PackageEE12adoptInsteadEPS1_.exit18 unwind label %13

_ZN6icu_7712LocalPointerINS_7PackageEE12adoptInsteadEPS1_.exit18: ; preds = %17
  store ptr %18, ptr %8, align 8, !tbaa !22
  %.not = icmp eq ptr %18, null
  br i1 %.not, label %_ZN6icu_7712LocalPointerINS_7PackageEED2Ev.exit.thread, label %19

_ZN6icu_7712LocalPointerINS_7PackageEED2Ev.exit.thread: ; preds = %_ZN6icu_7712LocalPointerINS_7PackageEE12adoptInsteadEPS1_.exit18
  call void @llvm.lifetime.end.p0(i64 8, ptr nonnull %8) #15
  br label %25

19:                                               ; preds = %_ZN6icu_7712LocalPointerINS_7PackageEE12adoptInsteadEPS1_.exit18
  invoke void @_ZN6icu_777Package8addItemsERKS0_(ptr noundef nonnull align 8 dereferenceable(201237) %11, ptr noundef nonnull align 8 dereferenceable(201237) %18)
          to label %20 unwind label %13

20:                                               ; preds = %19, %6
  %21 = phi ptr [ %11, %19 ], [ null, %6 ]
  %.pr = phi ptr [ %18, %19 ], [ null, %6 ]
  %.013 = phi ptr [ %11, %19 ], [ %4, %6 ]
  invoke void @_ZN6icu_777Package12writePackageEPKccS2_(ptr noundef nonnull align 8 dereferenceable(201237) %.013, ptr noundef %0, i8 noundef signext %5, ptr noundef %1)
          to label %thread-pre-split unwind label %13

thread-pre-split:                                 ; preds = %20
  %22 = icmp eq ptr %.pr, null
  br i1 %22, label %_ZN6icu_7712LocalPointerINS_7PackageEED2Ev.exit, label %23

23:                                               ; preds = %thread-pre-split
  tail call void @_ZN6icu_777PackageD1Ev(ptr noundef nonnull align 8 dereferenceable(201237) %.pr) #15
  tail call void @_ZdlPvm(ptr noundef nonnull %.pr, i64 noundef 201240) #14
  br label %_ZN6icu_7712LocalPointerINS_7PackageEED2Ev.exit

_ZN6icu_7712LocalPointerINS_7PackageEED2Ev.exit:  ; preds = %thread-pre-split, %23
  call void @llvm.lifetime.end.p0(i64 8, ptr nonnull %8) #15
  %24 = icmp eq ptr %21, null
  br i1 %24, label %_ZN6icu_7712LocalPointerINS_7PackageEED2Ev.exit19, label %25

25:                                               ; preds = %_ZN6icu_7712LocalPointerINS_7PackageEED2Ev.exit.thread, %_ZN6icu_7712LocalPointerINS_7PackageEED2Ev.exit
  %26 = phi ptr [ %11, %_ZN6icu_7712LocalPointerINS_7PackageEED2Ev.exit.thread ], [ %21, %_ZN6icu_7712LocalPointerINS_7PackageEED2Ev.exit ]
  %.0122224 = phi i32 [ 1, %_ZN6icu_7712LocalPointerINS_7PackageEED2Ev.exit.thread ], [ 0, %_ZN6icu_7712LocalPointerINS_7PackageEED2Ev.exit ]
  tail call void @_ZN6icu_777PackageD1Ev(ptr noundef nonnull align 8 dereferenceable(201237) %26) #15
  tail call void @_ZdlPvm(ptr noundef nonnull %26, i64 noundef 201240) #14
  br label %_ZN6icu_7712LocalPointerINS_7PackageEED2Ev.exit19

_ZN6icu_7712LocalPointerINS_7PackageEED2Ev.exit19: ; preds = %_ZN6icu_7712LocalPointerINS_7PackageEED2Ev.exit, %25
  %.0122225 = phi i32 [ 0, %_ZN6icu_7712LocalPointerINS_7PackageEED2Ev.exit ], [ %.0122224, %25 ]
  call void @llvm.lifetime.end.p0(i64 8, ptr nonnull %7) #15
  ret i32 %.0122225

27:                                               ; preds = %15, %13
  %.pn = phi { ptr, i32 } [ %14, %13 ], [ %16, %15 ]
  call void @_ZN6icu_7712LocalPointerINS_7PackageEED2Ev(ptr noundef nonnull align 8 dereferenceable(8) %8) #15
  call void @llvm.lifetime.end.p0(i64 8, ptr nonnull %8) #15
  call void @_ZN6icu_7712LocalPointerINS_7PackageEED2Ev(ptr noundef nonnull align 8 dereferenceable(8) %7) #15
  call void @llvm.lifetime.end.p0(i64 8, ptr nonnull %7) #15
  resume { ptr, i32 } %.pn
}